target datalayout = "e-m:e-p270:32:32-p271:32:32-p272:64:64-i64:64-i128:128-f80:128-n8:16:32:64-S128"
target triple = "x86_64-pc-linux-gnu"

%struct.PROCLOCKTAG = type { ptr, ptr }
%struct.LOCK = type { %struct.LOCKTAG, i32, i32, %struct.dlist_head, %struct.dclist_head, [10 x i32], i32, [10 x i32], i32 }
%struct.LOCKTAG = type { i32, i32, i32, i16, i8, i8 }
%struct.dlist_head = type { %struct.dlist_node }
%struct.dlist_node = type { ptr, ptr }
%struct.dclist_head = type { %struct.dlist_head, i32 }
%struct.PROCLOCK = type { %struct.PROCLOCKTAG, ptr, i32, i32, %struct.dlist_node, %struct.dlist_node }

@LockMethodLockHash = internal global ptr null, align 8
@LockMethodProcLockHash = internal global ptr null, align 8
@.str.5 = private unnamed_addr constant [7 x i8] c"lock.c\00", align 1
@.str.13 = private unnamed_addr constant [25 x i8] c"proclock table corrupted\00", align 1
@.str.22 = private unnamed_addr constant [21 x i8] c"lock table corrupted\00", align 1
@__func__.CleanUpLock = private unnamed_addr constant [12 x i8] c"CleanUpLock\00", align 1

; Function Attrs: inlinehint nounwind uwtable
define internal i64 @PointerGetDatum(ptr noundef %0) #6 {
  %2 = alloca ptr, align 8
  store ptr %0, ptr %2, align 8
  %3 = load ptr, ptr %2, align 8
  %4 = ptrtoint ptr %3 to i64
  ret i64 %4
}

; Function Attrs: inlinehint nounwind uwtable
define internal i32 @ProcLockHashCode(ptr noundef %0, i32 noundef %1) #6 {
  %3 = alloca ptr, align 8
  %4 = alloca i32, align 4
  %5 = alloca i32, align 4
  %6 = alloca i64, align 8
  store ptr %0, ptr %3, align 8
  store i32 %1, ptr %4, align 4
  call void @llvm.lifetime.start.p0(i64 4, ptr %5) #9
  %7 = load i32, ptr %4, align 4
  store i32 %7, ptr %5, align 4
  call void @llvm.lifetime.start.p0(i64 8, ptr %6) #9
  %8 = load ptr, ptr %3, align 8
  %9 = getelementptr inbounds nuw %struct.PROCLOCKTAG, ptr %8, i32 0, i32 1
  %10 = load ptr, ptr %9, align 8
  %11 = call i64 @PointerGetDatum(ptr noundef %10)
  store i64 %11, ptr %6, align 8
  %12 = load i64, ptr %6, align 8
  %13 = trunc i64 %12 to i32
  %14 = shl i32 %13, 4
  %15 = load i32, ptr %5, align 4
  %16 = xor i32 %15, %14
  store i32 %16, ptr %5, align 4
  %17 = load i32, ptr %5, align 4
  call void @llvm.lifetime.end.p0(i64 8, ptr %6) #9
  call void @llvm.lifetime.end.p0(i64 4, ptr %5) #9
  ret i32 %17
}

; Function Attrs: inlinehint nounwind uwtable
define internal void @dlist_delete(ptr noundef %0) #6 {
  %2 = alloca ptr, align 8
  store ptr %0, ptr %2, align 8
  %3 = load ptr, ptr %2, align 8
  %4 = getelementptr inbounds nuw %struct.dlist_node, ptr %3, i32 0, i32 1
  %5 = load ptr, ptr %4, align 8
  %6 = load ptr, ptr %2, align 8
  %7 = getelementptr inbounds nuw %struct.dlist_node, ptr %6, i32 0, i32 0
  %8 = load ptr, ptr %7, align 8
  %9 = getelementptr inbounds nuw %struct.dlist_node, ptr %8, i32 0, i32 1
  store ptr %5, ptr %9, align 8
  %10 = load ptr, ptr %2, align 8
  %11 = getelementptr inbounds nuw %struct.dlist_node, ptr %10, i32 0, i32 0
  %12 = load ptr, ptr %11, align 8
  %13 = load ptr, ptr %2, align 8
  %14 = getelementptr inbounds nuw %struct.dlist_node, ptr %13, i32 0, i32 1
  %15 = load ptr, ptr %14, align 8
  %16 = getelementptr inbounds nuw %struct.dlist_node, ptr %15, i32 0, i32 0
  store ptr %12, ptr %16, align 8
  ret void
}

; Function Attrs: nounwind uwtable
define internal void @CleanUpLock(ptr noundef %0, ptr noundef %1, ptr noundef %2, i32 noundef %3, i1 noundef zeroext %4) #0 {
  %6 = alloca ptr, align 8
  %7 = alloca ptr, align 8
  %8 = alloca ptr, align 8
  %9 = alloca i32, align 4
  %10 = alloca i8, align 1
  %11 = alloca i32, align 4
  store ptr %0, ptr %6, align 8
  store ptr %1, ptr %7, align 8
  store ptr %2, ptr %8, align 8
  store i32 %3, ptr %9, align 4
  %12 = zext i1 %4 to i8
  store i8 %12, ptr %10, align 1
  %13 = load ptr, ptr %7, align 8
  %14 = getelementptr inbounds nuw %struct.PROCLOCK, ptr %13, i32 0, i32 2
  %15 = load i32, ptr %14, align 8
  %16 = icmp eq i32 %15, 0
  br i1 %16, label %17, label %44

17:                                               ; preds = %5
  call void @llvm.lifetime.start.p0(i64 4, ptr %11) #9
  %18 = load ptr, ptr %7, align 8
  %19 = getelementptr inbounds nuw %struct.PROCLOCK, ptr %18, i32 0, i32 4
  call void @dlist_delete(ptr noundef %19)
  %20 = load ptr, ptr %7, align 8
  %21 = getelementptr inbounds nuw %struct.PROCLOCK, ptr %20, i32 0, i32 5
  call void @dlist_delete(ptr noundef %21)
  %22 = load ptr, ptr %7, align 8
  %23 = getelementptr inbounds nuw %struct.PROCLOCK, ptr %22, i32 0, i32 0
  %24 = load i32, ptr %9, align 4
  %25 = call i32 @ProcLockHashCode(ptr noundef %23, i32 noundef %24)
  store i32 %25, ptr %11, align 4
  %26 = load ptr, ptr @LockMethodProcLockHash, align 8
  %27 = load ptr, ptr %7, align 8
  %28 = getelementptr inbounds nuw %struct.PROCLOCK, ptr %27, i32 0, i32 0
  %29 = load i32, ptr %11, align 4
  %30 = call ptr @hash_search_with_hash_value(ptr noundef %26, ptr noundef %28, i32 noundef %29, i32 noundef 2, ptr noundef null)
  %31 = icmp ne ptr %30, null
  br i1 %31, label %43, label %32

32:                                               ; preds = %17
  br label %33

33:                                               ; preds = %32
  br i1 true, label %34, label %36

34:                                               ; preds = %33
  %35 = call zeroext i1 @errstart_cold(i32 noundef 23, ptr noundef null) #10
  br i1 %35, label %38, label %40

36:                                               ; preds = %33
  %37 = call zeroext i1 @errstart(i32 noundef 23, ptr noundef null)
  br i1 %37, label %38, label %40

38:                                               ; preds = %36, %34
  %39 = call i32 (ptr, ...) @errmsg_internal(ptr noundef @.str.13)
  call void @errfinish(ptr noundef @.str.5, i32 noundef 1708, ptr noundef @__func__.CleanUpLock)
  br label %40

40:                                               ; preds = %38, %36, %34
  unreachable

41:                                               ; No predecessors!
  br label %42

42:                                               ; preds = %41
  br label %43

43:                                               ; preds = %42, %17
  call void @llvm.lifetime.end.p0(i64 4, ptr %11) #9
  br label %44

44:                                               ; preds = %43, %5
  %45 = load ptr, ptr %6, align 8
  %46 = getelementptr inbounds nuw %struct.LOCK, ptr %45, i32 0, i32 6
  %47 = load i32, ptr %46, align 8
  %48 = icmp eq i32 %47, 0
  br i1 %48, label %49, label %67

49:                                               ; preds = %44
  %50 = load ptr, ptr @LockMethodLockHash, align 8
  %51 = load ptr, ptr %6, align 8
  %52 = getelementptr inbounds nuw %struct.LOCK, ptr %51, i32 0, i32 0
  %53 = load i32, ptr %9, align 4
  %54 = call ptr @hash_search_with_hash_value(ptr noundef %50, ptr noundef %52, i32 noundef %53, i32 noundef 2, ptr noundef null)
  %55 = icmp ne ptr %54, null
  br i1 %55, label %66, label %56

56:                                               ; preds = %49
  br label %57

57:                                               ; preds = %56
  br i1 true, label %58, label %60

58:                                               ; preds = %57
  %59 = call zeroext i1 @errstart_cold(i32 noundef 23, ptr noundef null) #10
  br i1 %59, label %62, label %64

60:                                               ; preds = %57
  %61 = call zeroext i1 @errstart(i32 noundef 23, ptr noundef null)
  br i1 %61, label %62, label %64

62:                                               ; preds = %60, %58
  %63 = call i32 (ptr, ...) @errmsg_internal(ptr noundef @.str.22)
  call void @errfinish(ptr noundef @.str.5, i32 noundef 1724, ptr noundef @__func__.CleanUpLock)
  br label %64

64:                                               ; preds = %62, %60, %58
  unreachable

65:                                               ; No predecessors!
  br label %66

66:                                               ; preds = %65, %49
  br label %74

67:                                               ; preds = %44
  %68 = load i8, ptr %10, align 1, !range !4, !noundef !5
  %69 = trunc i8 %68 to i1
  br i1 %69, label %70, label %73

70:                                               ; preds = %67
  %71 = load ptr, ptr %8, align 8
  %72 = load ptr, ptr %6, align 8
  call void @ProcLockWakeup(ptr noundef %71, ptr noundef %72)
  br label %73

73:                                               ; preds = %70, %67
  br label %74

74:                                               ; preds = %73, %66
  ret void
}