; Function Attrs: nounwind uwtable
define internal fastcc void @CleanUpLock(ptr noundef %0, ptr noundef %1, ptr noundef %2, i32 noundef %3, i1 noundef zeroext %4) unnamed_addr #0 {
  %6 = getelementptr inbounds nuw i8, ptr %1, i64 24
  %7 = load i32, ptr %6, align 8
  %8 = icmp eq i32 %7, 0
  br i1 %8, label %9, label %32

9:                                                ; preds = %5
  %10 = getelementptr inbounds nuw i8, ptr %1, i64 32
  %11 = getelementptr inbounds nuw i8, ptr %1, i64 40
  %12 = load ptr, ptr %11, align 8
  %13 = load ptr, ptr %10, align 8
  %14 = getelementptr inbounds nuw i8, ptr %13, i64 8
  store ptr %12, ptr %14, align 8
  %15 = load ptr, ptr %10, align 8
  store ptr %15, ptr %12, align 8
  %16 = getelementptr inbounds nuw i8, ptr %1, i64 48
  %17 = getelementptr inbounds nuw i8, ptr %1, i64 56
  %18 = load ptr, ptr %17, align 8
  %19 = load ptr, ptr %16, align 8
  %20 = getelementptr inbounds nuw i8, ptr %19, i64 8
  store ptr %18, ptr %20, align 8
  %21 = load ptr, ptr %16, align 8
  store ptr %21, ptr %18, align 8
  %22 = getelementptr i8, ptr %1, i64 8
  %.val = load ptr, ptr %22, align 8
  %23 = ptrtoint ptr %.val to i64
  %24 = trunc i64 %23 to i32
  %25 = shl i32 %24, 4
  %26 = xor i32 %25, %3
  %27 = load ptr, ptr @LockMethodProcLockHash, align 8
  %28 = tail call ptr @hash_search_with_hash_value(ptr noundef %27, ptr noundef nonnull %1, i32 noundef %26, i32 noundef 2, ptr noundef null) #17
  %.not = icmp eq ptr %28, null
  br i1 %.not, label %29, label %32

29:                                               ; preds = %9
  %30 = tail call zeroext i1 @errstart_cold(i32 noundef 23, ptr noundef null) #18
  tail call void @llvm.assume(i1 %30)
  %31 = tail call i32 (ptr, ...) @errmsg_internal(ptr noundef nonnull @.str.13) #17
  tail call void @errfinish(ptr noundef nonnull @.str.5, i32 noundef 1708, ptr noundef nonnull @__func__.CleanUpLock) #17
  unreachable

32:                                               ; preds = %9, %5
  %33 = getelementptr inbounds nuw i8, ptr %0, i64 104
  %34 = load i32, ptr %33, align 8
  %35 = icmp eq i32 %34, 0
  br i1 %35, label %36, label %42

36:                                               ; preds = %32
  %37 = load ptr, ptr @LockMethodLockHash, align 8
  %38 = tail call ptr @hash_search_with_hash_value(ptr noundef %37, ptr noundef nonnull %0, i32 noundef %3, i32 noundef 2, ptr noundef null) #17
  %.not12 = icmp eq ptr %38, null
  br i1 %.not12, label %39, label %44

39:                                               ; preds = %36
  %40 = tail call zeroext i1 @errstart_cold(i32 noundef 23, ptr noundef null) #18
  tail call void @llvm.assume(i1 %40)
  %41 = tail call i32 (ptr, ...) @errmsg_internal(ptr noundef nonnull @.str.22) #17
  tail call void @errfinish(ptr noundef nonnull @.str.5, i32 noundef 1724, ptr noundef nonnull @__func__.CleanUpLock) #17
  unreachable

42:                                               ; preds = %32
  br i1 %4, label %43, label %44

43:                                               ; preds = %42
  tail call void @ProcLockWakeup(ptr noundef %2, ptr noundef nonnull %0) #17
  br label %44

44:                                               ; preds = %42, %43, %36
  ret void
}